; Function Attrs: mustprogress nounwind uwtable
define void @_ZN8PmeSolveD2Ev(ptr noundef nonnull readonly align 8 captures(none) dereferenceable(24) %0) unnamed_addr #16 align 2 personality ptr @__gxx_personality_v0 {
  %2 = load ptr, ptr %0, align 8, !tbaa !44
  %3 = getelementptr inbounds nuw i8, ptr %0, i64 8
  %4 = load ptr, ptr %3, align 8, !tbaa !51
  %.not4.i.i.i.i = icmp eq ptr %2, %4
  br i1 %.not4.i.i.i.i, label %_ZSt8_DestroyIPSt10unique_ptrI16pme_solve_work_tSt14default_deleteIS1_EES4_EvT_S6_RSaIT0_E.exit.i, label %.lr.ph.i.i.i.i

.lr.ph.i.i.i.i:                                   ; preds = %1, %_ZSt8_DestroyISt10unique_ptrI16pme_solve_work_tSt14default_deleteIS1_EEEvPT_.exit.i.i.i.i
  %.05.i.i.i.i = phi ptr [ %6, %_ZSt8_DestroyISt10unique_ptrI16pme_solve_work_tSt14default_deleteIS1_EEEvPT_.exit.i.i.i.i ], [ %2, %1 ]
  %5 = load ptr, ptr %.05.i.i.i.i, align 8, !tbaa !47
  %.not.i.i.i.i.i.i = icmp eq ptr %5, null
  br i1 %.not.i.i.i.i.i.i, label %_ZSt8_DestroyISt10unique_ptrI16pme_solve_work_tSt14default_deleteIS1_EEEvPT_.exit.i.i.i.i, label %_ZNKSt14default_deleteI16pme_solve_work_tEclEPS0_.exit.i.i.i.i.i.i

_ZNKSt14default_deleteI16pme_solve_work_tEclEPS0_.exit.i.i.i.i.i.i: ; preds = %.lr.ph.i.i.i.i
  tail call void @_ZN16pme_solve_work_tD2Ev(ptr noundef nonnull align 8 dereferenceable(328) %5) #14
  tail call void @_ZdlPvm(ptr noundef nonnull %5, i64 noundef 328) #25
  br label %_ZSt8_DestroyISt10unique_ptrI16pme_solve_work_tSt14default_deleteIS1_EEEvPT_.exit.i.i.i.i

_ZSt8_DestroyISt10unique_ptrI16pme_solve_work_tSt14default_deleteIS1_EEEvPT_.exit.i.i.i.i: ; preds = %_ZNKSt14default_deleteI16pme_solve_work_tEclEPS0_.exit.i.i.i.i.i.i, %.lr.ph.i.i.i.i
  store ptr null, ptr %.05.i.i.i.i, align 8, !tbaa !47
  %6 = getelementptr inbounds nuw i8, ptr %.05.i.i.i.i, i64 8
  %.not.i.i.i.i = icmp eq ptr %6, %4
  br i1 %.not.i.i.i.i, label %_ZSt8_DestroyIPSt10unique_ptrI16pme_solve_work_tSt14default_deleteIS1_EES4_EvT_S6_RSaIT0_E.exitthread-pre-split.i, label %.lr.ph.i.i.i.i, !llvm.loop !52

_ZSt8_DestroyIPSt10unique_ptrI16pme_solve_work_tSt14default_deleteIS1_EES4_EvT_S6_RSaIT0_E.exitthread-pre-split.i: ; preds = %_ZSt8_DestroyISt10unique_ptrI16pme_solve_work_tSt14default_deleteIS1_EEEvPT_.exit.i.i.i.i
  %.pr.i = load ptr, ptr %0, align 8, !tbaa !44
  br label %_ZSt8_DestroyIPSt10unique_ptrI16pme_solve_work_tSt14default_deleteIS1_EES4_EvT_S6_RSaIT0_E.exit.i

_ZSt8_DestroyIPSt10unique_ptrI16pme_solve_work_tSt14default_deleteIS1_EES4_EvT_S6_RSaIT0_E.exit.i: ; preds = %_ZSt8_DestroyIPSt10unique_ptrI16pme_solve_work_tSt14default_deleteIS1_EES4_EvT_S6_RSaIT0_E.exitthread-pre-split.i, %1
  %7 = phi ptr [ %.pr.i, %_ZSt8_DestroyIPSt10unique_ptrI16pme_solve_work_tSt14default_deleteIS1_EES4_EvT_S6_RSaIT0_E.exitthread-pre-split.i ], [ %2, %1 ]
  %.not.i.i.i = icmp eq ptr %7, null
  br i1 %.not.i.i.i, label %_ZNSt6vectorISt10unique_ptrI16pme_solve_work_tSt14default_deleteIS1_EESaIS4_EED2Ev.exit, label %8

8:                                                ; preds = %_ZSt8_DestroyIPSt10unique_ptrI16pme_solve_work_tSt14default_deleteIS1_EES4_EvT_S6_RSaIT0_E.exit.i
  %9 = getelementptr inbounds nuw i8, ptr %0, i64 16
  %10 = load ptr, ptr %9, align 8, !tbaa !53
  %11 = ptrtoint ptr %10 to i64
  %12 = ptrtoint ptr %7 to i64
  %13 = sub i64 %11, %12
  tail call void @_ZdlPvm(ptr noundef nonnull %7, i64 noundef %13) #25
  br label %_ZNSt6vectorISt10unique_ptrI16pme_solve_work_tSt14default_deleteIS1_EESaIS4_EED2Ev.exit

_ZNSt6vectorISt10unique_ptrI16pme_solve_work_tSt14default_deleteIS1_EESaIS4_EED2Ev.exit: ; preds = %_ZSt8_DestroyIPSt10unique_ptrI16pme_solve_work_tSt14default_deleteIS1_EES4_EvT_S6_RSaIT0_E.exit.i, %8
  ret void
}